target datalayout = "e-m:e-p270:32:32-p271:32:32-p272:64:64-i64:64-i128:128-f80:128-n8:16:32:64-S128"
target triple = "x86_64-pc-linux-gnu"

%struct._longobject = type { %struct._object, %struct._PyLongValue }
%struct._object = type { %union.anon.62, ptr }
%union.anon.62 = type { i64 }
%struct._PyLongValue = type { i64, [1 x i32] }
%struct.PyVarObject = type { %struct._object, i64 }
%struct.PyASCIIObject = type { %struct._object, i64, i64, %struct.anon.75 }
%struct.anon.75 = type { i16, i16 }
%struct._typeobject = type { %struct.PyVarObject, ptr, i64, i64, ptr, i64, ptr, ptr, ptr, ptr, ptr, ptr, ptr, ptr, ptr, ptr, ptr, ptr, ptr, i64, ptr, ptr, ptr, ptr, i64, ptr, ptr, ptr, ptr, ptr, ptr, ptr, ptr, ptr, i64, ptr, ptr, ptr, ptr, ptr, ptr, ptr, ptr, ptr, ptr, ptr, i32, ptr, ptr, i8, i16 }

; Function Attrs: inlinehint nounwind uwtable
define internal i64 @Py_SIZE(ptr noundef %0) #2 {
  %2 = alloca ptr, align 8
  store ptr %0, ptr %2, align 8, !tbaa !31
  %3 = load ptr, ptr %2, align 8, !tbaa !31
  %4 = getelementptr inbounds nuw %struct.PyVarObject, ptr %3, i32 0, i32 1
  %5 = load i64, ptr %4, align 8, !tbaa !200
  ret i64 %5
}

; Function Attrs: inlinehint nounwind uwtable
define internal i64 @PyBytes_GET_SIZE(ptr noundef %0) #2 {
  %2 = alloca ptr, align 8
  %3 = alloca ptr, align 8
  store ptr %0, ptr %2, align 8, !tbaa !31
  call void @llvm.lifetime.start.p0(i64 8, ptr %3) #8
  %4 = load ptr, ptr %2, align 8, !tbaa !31
  store ptr %4, ptr %3, align 8, !tbaa !32
  %5 = load ptr, ptr %3, align 8, !tbaa !32
  %6 = call i64 @Py_SIZE(ptr noundef %5)
  call void @llvm.lifetime.end.p0(i64 8, ptr %3) #8
  ret i64 %6
}

; Function Attrs: inlinehint nounwind uwtable
define internal i64 @PyUnicode_GET_LENGTH(ptr noundef %0) #2 {
  %2 = alloca ptr, align 8
  store ptr %0, ptr %2, align 8, !tbaa !31
  %3 = load ptr, ptr %2, align 8, !tbaa !31
  %4 = getelementptr inbounds nuw %struct.PyASCIIObject, ptr %3, i32 0, i32 1
  %5 = load i64, ptr %4, align 8, !tbaa !185
  ret i64 %5
}

; Function Attrs: inlinehint nounwind uwtable
define internal i64 @PyTuple_GET_SIZE(ptr noundef %0) #2 {
  %2 = alloca ptr, align 8
  %3 = alloca ptr, align 8
  store ptr %0, ptr %2, align 8, !tbaa !31
  call void @llvm.lifetime.start.p0(i64 8, ptr %3) #8
  %4 = load ptr, ptr %2, align 8, !tbaa !31
  store ptr %4, ptr %3, align 8, !tbaa !32
  %5 = load ptr, ptr %3, align 8, !tbaa !32
  %6 = call i64 @Py_SIZE(ptr noundef %5)
  call void @llvm.lifetime.end.p0(i64 8, ptr %3) #8
  ret i64 %6
}

; Function Attrs: inlinehint nounwind uwtable
define internal zeroext i1 @_PyLong_IsZero(ptr noundef %0) #2 {
  %2 = alloca ptr, align 8
  store ptr %0, ptr %2, align 8, !tbaa !194
  %3 = load ptr, ptr %2, align 8, !tbaa !194
  %4 = getelementptr inbounds nuw %struct._longobject, ptr %3, i32 0, i32 1
  %5 = getelementptr inbounds nuw %struct._PyLongValue, ptr %4, i32 0, i32 0
  %6 = load i64, ptr %5, align 8, !tbaa !196
  %7 = and i64 %6, 3
  %8 = icmp eq i64 %7, 1
  ret i1 %8
}

; Function Attrs: inlinehint nounwind uwtable
define internal i32 @PyType_HasFeature(ptr noundef %0, i64 noundef %1) #2 {
  %3 = alloca ptr, align 8
  %4 = alloca i64, align 8
  %5 = alloca i64, align 8
  store ptr %0, ptr %3, align 8, !tbaa !166
  store i64 %1, ptr %4, align 8, !tbaa !36
  call void @llvm.lifetime.start.p0(i64 8, ptr %5) #8
  %6 = load ptr, ptr %3, align 8, !tbaa !166
  %7 = getelementptr inbounds nuw %struct._typeobject, ptr %6, i32 0, i32 19
  %8 = load i64, ptr %7, align 8, !tbaa !168
  store i64 %8, ptr %5, align 8, !tbaa !36
  %9 = load i64, ptr %5, align 8, !tbaa !36
  %10 = load i64, ptr %4, align 8, !tbaa !36
  %11 = and i64 %9, %10
  %12 = icmp ne i64 %11, 0
  %13 = zext i1 %12 to i32
  call void @llvm.lifetime.end.p0(i64 8, ptr %5) #8
  ret i32 %13
}

; Function Attrs: inlinehint nounwind uwtable
define internal ptr @_Py_TYPE(ptr noundef %0) #2 {
  %2 = alloca ptr, align 8
  store ptr %0, ptr %2, align 8, !tbaa !31
  %3 = load ptr, ptr %2, align 8, !tbaa !31
  %4 = getelementptr inbounds nuw %struct._object, ptr %3, i32 0, i32 1
  %5 = load ptr, ptr %4, align 8, !tbaa !177
  ret ptr %5
}

; Function Attrs: nounwind uwtable
define internal ptr @safe_multiply(ptr noundef %0, ptr noundef %1) #0 {
  %3 = alloca ptr, align 8
  %4 = alloca ptr, align 8
  %5 = alloca ptr, align 8
  %6 = alloca i64, align 8
  %7 = alloca i64, align 8
  %8 = alloca i32, align 4
  %9 = alloca i64, align 8
  %10 = alloca i64, align 8
  %11 = alloca i64, align 8
  %12 = alloca i64, align 8
  store ptr %0, ptr %4, align 8, !tbaa !31
  store ptr %1, ptr %5, align 8, !tbaa !31
  %13 = load ptr, ptr %4, align 8, !tbaa !31
  %14 = call ptr @_Py_TYPE(ptr noundef %13)
  %15 = call i32 @PyType_HasFeature(ptr noundef %14, i64 noundef 16777216)
  %16 = icmp ne i32 %15, 0
  br i1 %16, label %17, label %42

17:                                               ; preds = %2
  %18 = load ptr, ptr %5, align 8, !tbaa !31
  %19 = call ptr @_Py_TYPE(ptr noundef %18)
  %20 = call i32 @PyType_HasFeature(ptr noundef %19, i64 noundef 16777216)
  %21 = icmp ne i32 %20, 0
  br i1 %21, label %22, label %42

22:                                               ; preds = %17
  %23 = load ptr, ptr %4, align 8, !tbaa !31
  %24 = call zeroext i1 @_PyLong_IsZero(ptr noundef %23)
  br i1 %24, label %42, label %25

25:                                               ; preds = %22
  %26 = load ptr, ptr %5, align 8, !tbaa !31
  %27 = call zeroext i1 @_PyLong_IsZero(ptr noundef %26)
  br i1 %27, label %42, label %28

28:                                               ; preds = %25
  call void @llvm.lifetime.start.p0(i64 8, ptr %6) #8
  %29 = load ptr, ptr %4, align 8, !tbaa !31
  %30 = call i64 @_PyLong_NumBits(ptr noundef %29)
  store i64 %30, ptr %6, align 8, !tbaa !36
  call void @llvm.lifetime.start.p0(i64 8, ptr %7) #8
  %31 = load ptr, ptr %5, align 8, !tbaa !31
  %32 = call i64 @_PyLong_NumBits(ptr noundef %31)
  store i64 %32, ptr %7, align 8, !tbaa !36
  %33 = load i64, ptr %6, align 8, !tbaa !36
  %34 = load i64, ptr %7, align 8, !tbaa !36
  %35 = add i64 %33, %34
  %36 = icmp sgt i64 %35, 128
  br i1 %36, label %37, label %38

37:                                               ; preds = %28
  store ptr null, ptr %3, align 8
  store i32 1, ptr %8, align 4
  br label %39

38:                                               ; preds = %28
  store i32 0, ptr %8, align 4
  br label %39

39:                                               ; preds = %38, %37
  call void @llvm.lifetime.end.p0(i64 8, ptr %7) #8
  call void @llvm.lifetime.end.p0(i64 8, ptr %6) #8
  %40 = load i32, ptr %8, align 4
  switch i32 %40, label %168 [
    i32 0, label %41
    i32 1, label %166
  ]

41:                                               ; preds = %39
  br label %162

42:                                               ; preds = %25, %22, %17, %2
  %43 = load ptr, ptr %4, align 8, !tbaa !31
  %44 = call ptr @_Py_TYPE(ptr noundef %43)
  %45 = call i32 @PyType_HasFeature(ptr noundef %44, i64 noundef 16777216)
  %46 = icmp ne i32 %45, 0
  br i1 %46, label %47, label %86

47:                                               ; preds = %42
  %48 = load ptr, ptr %5, align 8, !tbaa !31
  %49 = call ptr @_Py_TYPE(ptr noundef %48)
  %50 = call i32 @PyType_HasFeature(ptr noundef %49, i64 noundef 67108864)
  %51 = icmp ne i32 %50, 0
  br i1 %51, label %52, label %86

52:                                               ; preds = %47
  call void @llvm.lifetime.start.p0(i64 8, ptr %9) #8
  %53 = load ptr, ptr %5, align 8, !tbaa !31
  %54 = call i64 @PyTuple_GET_SIZE(ptr noundef %53)
  store i64 %54, ptr %9, align 8, !tbaa !36
  %55 = load i64, ptr %9, align 8, !tbaa !36
  %56 = icmp ne i64 %55, 0
  br i1 %56, label %57, label %82

57:                                               ; preds = %52
  call void @llvm.lifetime.start.p0(i64 8, ptr %10) #8
  %58 = load ptr, ptr %4, align 8, !tbaa !31
  %59 = call i64 @PyLong_AsLong(ptr noundef %58)
  store i64 %59, ptr %10, align 8, !tbaa !36
  %60 = load i64, ptr %10, align 8, !tbaa !36
  %61 = icmp slt i64 %60, 0
  br i1 %61, label %67, label %62

62:                                               ; preds = %57
  %63 = load i64, ptr %10, align 8, !tbaa !36
  %64 = load i64, ptr %9, align 8, !tbaa !36
  %65 = sdiv i64 256, %64
  %66 = icmp sgt i64 %63, %65
  br i1 %66, label %67, label %68

67:                                               ; preds = %62, %57
  store ptr null, ptr %3, align 8
  store i32 1, ptr %8, align 4
  br label %79

68:                                               ; preds = %62
  %69 = load i64, ptr %10, align 8, !tbaa !36
  %70 = icmp ne i64 %69, 0
  br i1 %70, label %71, label %78

71:                                               ; preds = %68
  %72 = load ptr, ptr %5, align 8, !tbaa !31
  %73 = load i64, ptr %10, align 8, !tbaa !36
  %74 = sdiv i64 1024, %73
  %75 = call i64 @check_complexity(ptr noundef %72, i64 noundef %74)
  %76 = icmp slt i64 %75, 0
  br i1 %76, label %77, label %78

77:                                               ; preds = %71
  store ptr null, ptr %3, align 8
  store i32 1, ptr %8, align 4
  br label %79

78:                                               ; preds = %71, %68
  store i32 0, ptr %8, align 4
  br label %79

79:                                               ; preds = %78, %77, %67
  call void @llvm.lifetime.end.p0(i64 8, ptr %10) #8
  %80 = load i32, ptr %8, align 4
  switch i32 %80, label %83 [
    i32 0, label %81
  ]

81:                                               ; preds = %79
  br label %82

82:                                               ; preds = %81, %52
  store i32 0, ptr %8, align 4
  br label %83

83:                                               ; preds = %82, %79
  call void @llvm.lifetime.end.p0(i64 8, ptr %9) #8
  %84 = load i32, ptr %8, align 4
  switch i32 %84, label %168 [
    i32 0, label %85
    i32 1, label %166
  ]

85:                                               ; preds = %83
  br label %161

86:                                               ; preds = %47, %42
  %87 = load ptr, ptr %4, align 8, !tbaa !31
  %88 = call ptr @_Py_TYPE(ptr noundef %87)
  %89 = call i32 @PyType_HasFeature(ptr noundef %88, i64 noundef 16777216)
  %90 = icmp ne i32 %89, 0
  br i1 %90, label %91, label %135

91:                                               ; preds = %86
  %92 = load ptr, ptr %5, align 8, !tbaa !31
  %93 = call ptr @_Py_TYPE(ptr noundef %92)
  %94 = call i32 @PyType_HasFeature(ptr noundef %93, i64 noundef 268435456)
  %95 = icmp ne i32 %94, 0
  br i1 %95, label %101, label %96

96:                                               ; preds = %91
  %97 = load ptr, ptr %5, align 8, !tbaa !31
  %98 = call ptr @_Py_TYPE(ptr noundef %97)
  %99 = call i32 @PyType_HasFeature(ptr noundef %98, i64 noundef 134217728)
  %100 = icmp ne i32 %99, 0
  br i1 %100, label %101, label %135

101:                                              ; preds = %96, %91
  call void @llvm.lifetime.start.p0(i64 8, ptr %11) #8
  %102 = load ptr, ptr %5, align 8, !tbaa !31
  %103 = call ptr @_Py_TYPE(ptr noundef %102)
  %104 = call i32 @PyType_HasFeature(ptr noundef %103, i64 noundef 268435456)
  %105 = icmp ne i32 %104, 0
  br i1 %105, label %106, label %109

106:                                              ; preds = %101
  %107 = load ptr, ptr %5, align 8, !tbaa !31
  %108 = call i64 @PyUnicode_GET_LENGTH(ptr noundef %107)
  br label %112

109:                                              ; preds = %101
  %110 = load ptr, ptr %5, align 8, !tbaa !31
  %111 = call i64 @PyBytes_GET_SIZE(ptr noundef %110)
  br label %112

112:                                              ; preds = %109, %106
  %113 = phi i64 [ %108, %106 ], [ %111, %109 ]
  store i64 %113, ptr %11, align 8, !tbaa !36
  %114 = load i64, ptr %11, align 8, !tbaa !36
  %115 = icmp ne i64 %114, 0
  br i1 %115, label %116, label %131

116:                                              ; preds = %112
  call void @llvm.lifetime.start.p0(i64 8, ptr %12) #8
  %117 = load ptr, ptr %4, align 8, !tbaa !31
  %118 = call i64 @PyLong_AsLong(ptr noundef %117)
  store i64 %118, ptr %12, align 8, !tbaa !36
  %119 = load i64, ptr %12, align 8, !tbaa !36
  %120 = icmp slt i64 %119, 0
  br i1 %120, label %126, label %121

121:                                              ; preds = %116
  %122 = load i64, ptr %12, align 8, !tbaa !36
  %123 = load i64, ptr %11, align 8, !tbaa !36
  %124 = sdiv i64 4096, %123
  %125 = icmp sgt i64 %122, %124
  br i1 %125, label %126, label %127

126:                                              ; preds = %121, %116
  store ptr null, ptr %3, align 8
  store i32 1, ptr %8, align 4
  br label %128

127:                                              ; preds = %121
  store i32 0, ptr %8, align 4
  br label %128

128:                                              ; preds = %127, %126
  call void @llvm.lifetime.end.p0(i64 8, ptr %12) #8
  %129 = load i32, ptr %8, align 4
  switch i32 %129, label %132 [
    i32 0, label %130
  ]

130:                                              ; preds = %128
  br label %131

131:                                              ; preds = %130, %112
  store i32 0, ptr %8, align 4
  br label %132

132:                                              ; preds = %131, %128
  call void @llvm.lifetime.end.p0(i64 8, ptr %11) #8
  %133 = load i32, ptr %8, align 4
  switch i32 %133, label %168 [
    i32 0, label %134
    i32 1, label %166
  ]

134:                                              ; preds = %132
  br label %160

135:                                              ; preds = %96, %86
  %136 = load ptr, ptr %5, align 8, !tbaa !31
  %137 = call ptr @_Py_TYPE(ptr noundef %136)
  %138 = call i32 @PyType_HasFeature(ptr noundef %137, i64 noundef 16777216)
  %139 = icmp ne i32 %138, 0
  br i1 %139, label %140, label %159

140:                                              ; preds = %135
  %141 = load ptr, ptr %4, align 8, !tbaa !31
  %142 = call ptr @_Py_TYPE(ptr noundef %141)
  %143 = call i32 @PyType_HasFeature(ptr noundef %142, i64 noundef 67108864)
  %144 = icmp ne i32 %143, 0
  br i1 %144, label %155, label %145

145:                                              ; preds = %140
  %146 = load ptr, ptr %4, align 8, !tbaa !31
  %147 = call ptr @_Py_TYPE(ptr noundef %146)
  %148 = call i32 @PyType_HasFeature(ptr noundef %147, i64 noundef 268435456)
  %149 = icmp ne i32 %148, 0
  br i1 %149, label %155, label %150

150:                                              ; preds = %145
  %151 = load ptr, ptr %4, align 8, !tbaa !31
  %152 = call ptr @_Py_TYPE(ptr noundef %151)
  %153 = call i32 @PyType_HasFeature(ptr noundef %152, i64 noundef 134217728)
  %154 = icmp ne i32 %153, 0
  br i1 %154, label %155, label %159

155:                                              ; preds = %150, %145, %140
  %156 = load ptr, ptr %5, align 8, !tbaa !31
  %157 = load ptr, ptr %4, align 8, !tbaa !31
  %158 = call ptr @safe_multiply(ptr noundef %156, ptr noundef %157)
  store ptr %158, ptr %3, align 8
  br label %166

159:                                              ; preds = %150, %135
  br label %160

160:                                              ; preds = %159, %134
  br label %161

161:                                              ; preds = %160, %85
  br label %162

162:                                              ; preds = %161, %41
  %163 = load ptr, ptr %4, align 8, !tbaa !31
  %164 = load ptr, ptr %5, align 8, !tbaa !31
  %165 = call ptr @PyNumber_Multiply(ptr noundef %163, ptr noundef %164)
  store ptr %165, ptr %3, align 8
  br label %166

166:                                              ; preds = %162, %155, %132, %83, %39
  %167 = load ptr, ptr %3, align 8
  ret ptr %167

168:                                              ; preds = %132, %83, %39
  unreachable
}