; Function Attrs: nounwind uwtable
define internal fastcc ptr @safe_multiply(ptr noundef %0, ptr noundef %1) unnamed_addr #0 {
  %.phi.trans.insert = getelementptr i8, ptr %0, i64 8
  %.val81.pre = load ptr, ptr %.phi.trans.insert, align 8, !tbaa !154
  %.phi.trans.insert131 = getelementptr i8, ptr %.val81.pre, i64 168
  %.val93.pre = load i64, ptr %.phi.trans.insert131, align 8, !tbaa !157
  br label %tailrecurse

tailrecurse:                                      ; preds = %.thread103, %2
  %.val93 = phi i64 [ %.val93.pre, %2 ], [ %.val85.pre, %.thread103 ]
  %.tr = phi ptr [ %0, %2 ], [ %.tr111, %.thread103 ]
  %.tr111 = phi ptr [ %1, %2 ], [ %.tr, %.thread103 ]
  %3 = and i64 %.val93, 16777216
  %.not = icmp eq i64 %3, 0
  %.phi.trans.insert133 = getelementptr i8, ptr %.tr111, i64 8
  %.val73.pre = load ptr, ptr %.phi.trans.insert133, align 8, !tbaa !154
  %.phi.trans.insert135 = getelementptr i8, ptr %.val73.pre, i64 168
  %.val85.pre = load i64, ptr %.phi.trans.insert135, align 8, !tbaa !157
  %.pre = and i64 %.val85.pre, 16777216
  br i1 %.not, label %.thread103, label %4

4:                                                ; preds = %tailrecurse
  %.not52 = icmp eq i64 %.pre, 0
  br i1 %.not52, label %18, label %5

5:                                                ; preds = %4
  %6 = getelementptr i8, ptr %.tr, i64 16
  %.val95 = load i64, ptr %6, align 8, !tbaa !178
  %7 = and i64 %.val95, 3
  %8 = icmp eq i64 %7, 1
  br i1 %8, label %18, label %9

9:                                                ; preds = %5
  %10 = getelementptr i8, ptr %.tr111, i64 16
  %.val96 = load i64, ptr %10, align 8, !tbaa !178
  %11 = and i64 %.val96, 3
  %12 = icmp eq i64 %11, 1
  br i1 %12, label %18, label %13

13:                                               ; preds = %9
  %14 = tail call i64 @_PyLong_NumBits(ptr noundef nonnull %.tr) #8
  %15 = tail call i64 @_PyLong_NumBits(ptr noundef nonnull %.tr111) #8
  %16 = add i64 %15, %14
  %17 = icmp slt i64 %16, 129
  br i1 %17, label %.critedge, label %.thread100

18:                                               ; preds = %9, %5, %4
  %19 = and i64 %.val85.pre, 67108864
  %.not54 = icmp eq i64 %19, 0
  br i1 %.not54, label %33, label %20

20:                                               ; preds = %18
  %21 = getelementptr i8, ptr %.tr111, i64 16
  %.val97 = load i64, ptr %21, align 8, !tbaa !181
  %.not64 = icmp eq i64 %.val97, 0
  br i1 %.not64, label %.critedge, label %22

22:                                               ; preds = %20
  %23 = tail call i64 @PyLong_AsLong(ptr noundef nonnull %.tr) #8
  %24 = icmp slt i64 %23, 0
  br i1 %24, label %.thread100, label %25

25:                                               ; preds = %22
  %26 = sdiv i64 256, %.val97
  %27 = icmp sgt i64 %23, %26
  br i1 %27, label %.thread100, label %28

28:                                               ; preds = %25
  %.not65 = icmp eq i64 %23, 0
  br i1 %.not65, label %.critedge, label %29

29:                                               ; preds = %28
  %.rhs.trunc = trunc i64 %23 to i16
  %30 = udiv i16 1024, %.rhs.trunc
  %.zext = zext nneg i16 %30 to i64
  %31 = tail call fastcc i64 @check_complexity(ptr noundef nonnull %.tr111, i64 noundef %.zext)
  %32 = icmp slt i64 %31, 0
  br i1 %32, label %.thread100, label %.critedge

33:                                               ; preds = %18
  %34 = and i64 %.val85.pre, 402653184
  %or.cond113 = icmp eq i64 %34, 0
  br i1 %or.cond113, label %.thread103, label %35

35:                                               ; preds = %33
  %.in = getelementptr i8, ptr %.tr111, i64 16
  %36 = load i64, ptr %.in, align 8, !tbaa !182
  %.not63 = icmp eq i64 %36, 0
  br i1 %.not63, label %.critedge, label %37

37:                                               ; preds = %35
  %38 = tail call i64 @PyLong_AsLong(ptr noundef nonnull %.tr) #8
  %39 = icmp slt i64 %38, 0
  br i1 %39, label %.thread100, label %.critedge67

.critedge67:                                      ; preds = %37
  %40 = sdiv i64 4096, %36
  %.not110 = icmp sgt i64 %38, %40
  br i1 %.not110, label %.thread100, label %.critedge

.thread103:                                       ; preds = %tailrecurse, %33
  %.not58 = icmp eq i64 %.pre, 0
  %41 = and i64 %.val93, 469762048
  %or.cond112 = icmp eq i64 %41, 0
  %or.cond = or i1 %.not58, %or.cond112
  br i1 %or.cond, label %.critedge, label %tailrecurse

.critedge:                                        ; preds = %.thread103, %35, %28, %29, %20, %13, %.critedge67
  %42 = tail call ptr @PyNumber_Multiply(ptr noundef nonnull %.tr, ptr noundef nonnull %.tr111) #8
  br label %.thread100

.thread100:                                       ; preds = %37, %25, %22, %29, %13, %.critedge67, %.critedge
  %.1 = phi ptr [ %42, %.critedge ], [ null, %.critedge67 ], [ null, %13 ], [ null, %29 ], [ null, %22 ], [ null, %25 ], [ null, %37 ]
  ret ptr %.1
}